(iclassifier.knn
Knn
p0
(dp1
S'y'
p2
(lp3
S'mentah'
p4
ag4
ag4
ag4
ag4
ag4
ag4
ag4
ag4
ag4
ag4
ag4
ag4
ag4
ag4
ag4
ag4
ag4
ag4
ag4
ag4
ag4
ag4
ag4
ag4
ag4
ag4
ag4
ag4
ag4
ag4
ag4
ag4
ag4
ag4
ag4
ag4
ag4
ag4
ag4
aS'matang'
p5
ag5
ag5
ag5
ag5
ag5
ag5
ag5
ag5
ag5
ag5
ag5
ag5
ag5
ag5
ag5
ag5
ag5
ag5
ag5
ag5
ag5
ag5
ag5
ag5
ag5
ag5
ag5
ag5
ag5
ag5
ag5
ag5
ag5
ag5
ag5
ag5
ag5
ag5
ag5
aS'setengah-matang'
p6
ag6
ag6
ag6
ag6
ag6
ag6
ag6
ag6
ag6
ag6
ag6
ag6
ag6
ag6
ag6
ag6
ag6
ag6
ag6
ag6
ag6
ag6
ag6
ag6
ag6
ag6
ag6
ag6
ag6
ag6
ag6
ag6
ag6
ag6
ag6
ag6
ag6
ag6
ag6
asS'X'
p7
(lp8
(lp9
S'30.0'
p10
aS'153.0'
p11
aS'92.0'
p12
aa(lp13
S'109.0'
p14
aS'185.0'
p15
aS'168.0'
p16
aa(lp17
S'62.0'
p18
aS'139.0'
p19
aS'126.0'
p20
aa(lp21
S'90.0'
p22
aS'156.0'
p23
aS'139.0'
p24
aa(lp25
S'56.0'
p26
aS'163.0'
p27
aS'158.0'
p28
aa(lp29
S'45.0'
p30
aS'109.0'
p31
aS'91.0'
p32
aa(lp33
S'58.0'
p34
aS'160.0'
p35
aS'114.0'
p36
aa(lp37
S'47.0'
p38
aS'131.0'
p39
aS'115.0'
p40
aa(lp41
S'62.0'
p42
aS'144.0'
p43
aS'113.0'
p44
aa(lp45
S'67.0'
p46
aS'161.0'
p47
aS'126.0'
p48
aa(lp49
S'89.0'
p50
aS'153.0'
p51
aS'121.0'
p52
aa(lp53
S'70.0'
p54
aS'158.0'
p55
aS'122.0'
p56
aa(lp57
S'62.0'
p58
aS'144.0'
p59
aS'140.0'
p60
aa(lp61
S'58.0'
p62
aS'152.0'
p63
aS'127.0'
p64
aa(lp65
S'47.0'
p66
aS'139.0'
p67
aS'141.0'
p68
aa(lp69
S'63.0'
p70
aS'141.0'
p71
aS'142.0'
p72
aa(lp73
S'54.0'
p74
aS'161.0'
p75
aS'148.0'
p76
aa(lp77
S'60.0'
p78
aS'146.0'
p79
aS'122.0'
p80
aa(lp81
S'39.0'
p82
aS'123.0'
p83
aS'111.0'
p84
aa(lp85
S'82.0'
p86
aS'172.0'
p87
aS'150.0'
p88
aa(lp89
S'75.0'
p90
aS'157.0'
p91
aS'134.0'
p92
aa(lp93
S'73.0'
p94
aS'159.0'
p95
aS'157.0'
p96
aa(lp97
S'52.0'
p98
aS'145.0'
p99
aS'131.0'
p100
aa(lp101
S'76.0'
p102
aS'155.0'
p103
aS'117.0'
p104
aa(lp105
S'59.0'
p106
aS'136.0'
p107
aS'135.0'
p108
aa(lp109
S'54.0'
p110
aS'175.0'
p111
aS'147.0'
p112
aa(lp113
S'61.0'
p114
aS'134.0'
p115
aS'106.0'
p116
aa(lp117
S'84.0'
p118
aS'168.0'
p119
aS'161.0'
p120
aa(lp121
S'66.0'
p122
aS'150.0'
p123
aS'110.0'
p124
aa(lp125
S'69.0'
p126
aS'150.0'
p127
aS'132.0'
p128
aa(lp129
S'56.0'
p130
aS'142.0'
p131
aS'124.0'
p132
aa(lp133
S'81.0'
p134
aS'181.0'
p135
aS'129.0'
p136
aa(lp137
S'62.0'
p138
aS'123.0'
p139
aS'127.0'
p140
aa(lp141
S'34.0'
p142
aS'149.0'
p143
aS'91.0'
p144
aa(lp145
S'89.0'
p146
aS'167.0'
p147
aS'158.0'
p148
aa(lp149
S'89.0'
p150
aS'181.0'
p151
aS'158.0'
p152
aa(lp153
S'101.0'
p154
aS'184.0'
p155
aS'173.0'
p156
aa(lp157
S'87.0'
p158
aS'152.0'
p159
aS'137.0'
p160
aa(lp161
S'84.0'
p162
aS'160.0'
p163
aS'150.0'
p164
aa(lp165
S'76.0'
p166
aS'145.0'
p167
aS'130.0'
p168
aa(lp169
S'48.0'
p170
aS'84.0'
p171
aS'199.0'
p172
aa(lp173
S'132.0'
p174
aS'148.0'
p175
aS'225.0'
p176
aa(lp177
S'52.0'
p178
aS'74.0'
p179
aS'196.0'
p180
aa(lp181
S'62.0'
p182
aS'90.0'
p183
aS'223.0'
p184
aa(lp185
S'53.0'
p186
aS'82.0'
p187
aS'202.0'
p188
aa(lp189
S'67.0'
p190
aS'68.0'
p191
aS'180.0'
p192
aa(lp193
S'64.0'
p194
aS'92.0'
p195
aS'212.0'
p196
aa(lp197
S'62.0'
p198
aS'95.0'
p199
aS'228.0'
p200
aa(lp201
S'64.0'
p202
aS'83.0'
p203
aS'207.0'
p204
aa(lp205
S'83.0'
p206
aS'121.0'
p207
aS'222.0'
p208
aa(lp209
S'69.0'
p210
aS'82.0'
p211
aS'213.0'
p212
aa(lp213
S'79.0'
p214
aS'83.0'
p215
aS'182.0'
p216
aa(lp217
S'43.0'
p218
aS'98.0'
p219
aS'185.0'
p220
aa(lp221
S'74.0'
p222
aS'85.0'
p223
aS'177.0'
p224
aa(lp225
S'31.0'
p226
aS'64.0'
p227
aS'216.0'
p228
aa(lp229
S'27.0'
p230
aS'64.0'
p231
aS'198.0'
p232
aa(lp233
S'58.0'
p234
aS'76.0'
p235
aS'210.0'
p236
aa(lp237
S'36.0'
p238
aS'76.0'
p239
aS'231.0'
p240
aa(lp241
S'29.0'
p242
aS'64.0'
p243
aS'216.0'
p244
aa(lp245
S'60.0'
p246
aS'80.0'
p247
aS'175.0'
p248
aa(lp249
S'48.0'
p250
aS'72.0'
p251
aS'206.0'
p252
aa(lp253
S'36.0'
p254
aS'65.0'
p255
aS'191.0'
p256
aa(lp257
S'36.0'
p258
aS'58.0'
p259
aS'191.0'
p260
aa(lp261
S'68.0'
p262
aS'86.0'
p263
aS'180.0'
p264
aa(lp265
S'37.0'
p266
aS'60.0'
p267
aS'189.0'
p268
aa(lp269
S'67.0'
p270
aS'93.0'
p271
aS'199.0'
p272
aa(lp273
S'59.0'
p274
aS'98.0'
p275
aS'237.0'
p276
aa(lp277
S'31.0'
p278
aS'59.0'
p279
aS'176.0'
p280
aa(lp281
S'81.0'
p282
aS'86.0'
p283
aS'176.0'
p284
aa(lp285
S'36.0'
p286
aS'74.0'
p287
aS'229.0'
p288
aa(lp289
S'44.0'
p290
aS'76.0'
p291
aS'178.0'
p292
aa(lp293
S'57.0'
p294
aS'86.0'
p295
aS'210.0'
p296
aa(lp297
S'40.0'
p298
aS'71.0'
p299
aS'208.0'
p300
aa(lp301
S'49.0'
p302
aS'92.0'
p303
aS'206.0'
p304
aa(lp305
S'56.0'
p306
aS'91.0'
p307
aS'187.0'
p308
aa(lp309
S'56.0'
p310
aS'75.0'
p311
aS'205.0'
p312
aa(lp313
S'74.0'
p314
aS'87.0'
p315
aS'183.0'
p316
aa(lp317
S'50.0'
p318
aS'86.0'
p319
aS'181.0'
p320
aa(lp321
S'51.0'
p322
aS'72.0'
p323
aS'170.0'
p324
aa(lp325
S'64.0'
p326
aS'87.0'
p327
aS'198.0'
p328
aa(lp329
S'86.0'
p330
aS'177.0'
p331
aS'243.0'
p332
aa(lp333
S'157.0'
p334
aS'203.0'
p335
aS'211.0'
p336
aa(lp337
S'37.0'
p338
aS'159.0'
p339
aS'197.0'
p340
aa(lp341
S'45.0'
p342
aS'134.0'
p343
aS'186.0'
p344
aa(lp345
S'60.0'
p346
aS'144.0'
p347
aS'201.0'
p348
aa(lp349
S'57.0'
p350
aS'149.0'
p351
aS'203.0'
p352
aa(lp353
S'45.0'
p354
aS'125.0'
p355
aS'163.0'
p356
aa(lp357
S'56.0'
p358
aS'157.0'
p359
aS'191.0'
p360
aa(lp361
S'33.0'
p362
aS'127.0'
p363
aS'184.0'
p364
aa(lp365
S'54.0'
p366
aS'131.0'
p367
aS'221.0'
p368
aa(lp369
S'56.0'
p370
aS'162.0'
p371
aS'209.0'
p372
aa(lp373
S'49.0'
p374
aS'122.0'
p375
aS'197.0'
p376
aa(lp377
S'59.0'
p378
aS'133.0'
p379
aS'168.0'
p380
aa(lp381
S'71.0'
p382
aS'140.0'
p383
aS'173.0'
p384
aa(lp385
S'33.0'
p386
aS'124.0'
p387
aS'221.0'
p388
aa(lp389
S'41.0'
p390
aS'104.0'
p391
aS'198.0'
p392
aa(lp393
S'45.0'
p394
aS'152.0'
p395
aS'223.0'
p396
aa(lp397
S'41.0'
p398
aS'99.0'
p399
aS'198.0'
p400
aa(lp401
S'41.0'
p402
aS'138.0'
p403
aS'224.0'
p404
aa(lp405
S'72.0'
p406
aS'156.0'
p407
aS'227.0'
p408
aa(lp409
S'54.0'
p410
aS'135.0'
p411
aS'241.0'
p412
aa(lp413
S'49.0'
p414
aS'132.0'
p415
aS'244.0'
p416
aa(lp417
S'56.0'
p418
aS'136.0'
p419
aS'226.0'
p420
aa(lp421
S'28.0'
p422
aS'111.0'
p423
aS'185.0'
p424
aa(lp425
S'55.0'
p426
aS'137.0'
p427
aS'243.0'
p428
aa(lp429
S'53.0'
p430
aS'158.0'
p431
aS'198.0'
p432
aa(lp433
S'56.0'
p434
aS'143.0'
p435
aS'151.0'
p436
aa(lp437
S'49.0'
p438
aS'130.0'
p439
aS'163.0'
p440
aa(lp441
S'35.0'
p442
aS'158.0'
p443
aS'216.0'
p444
aa(lp445
S'49.0'
p446
aS'137.0'
p447
aS'218.0'
p448
aa(lp449
S'57.0'
p450
aS'123.0'
p451
aS'209.0'
p452
aa(lp453
S'53.0'
p454
aS'154.0'
p455
aS'222.0'
p456
aa(lp457
S'40.0'
p458
aS'143.0'
p459
aS'217.0'
p460
aa(lp461
S'70.0'
p462
aS'185.0'
p463
aS'245.0'
p464
aa(lp465
S'44.0'
p466
aS'143.0'
p467
aS'189.0'
p468
aa(lp469
S'68.0'
p470
aS'161.0'
p471
aS'228.0'
p472
aa(lp473
S'71.0'
p474
aS'131.0'
p475
aS'150.0'
p476
aa(lp477
S'66.0'
p478
aS'151.0'
p479
aS'190.0'
p480
aa(lp481
S'55.0'
p482
aS'126.0'
p483
aS'181.0'
p484
aa(lp485
S'42.0'
p486
aS'141.0'
p487
aS'206.0'
p488
aasS'k'
p489
I5
sS'label_list'
p490
(lp491
g4
ag5
ag6
asS'__k_search_result__'
p492
(lp493
(dp494
g490
g491
sS'X_tr'
p495
g8
sg489
I5
sS'confmatrix'
p496
(lp497
(lp498
I10
aI0
aI0
aa(lp499
I0
aI10
aI0
aa(lp500
I0
aI0
aI10
aasS'y_tr'
p501
g3
sS'accuracy'
p502
F1.0
sa(dp503
g490
g491
sg495
g8
sg489
I7
sg496
(lp504
(lp505
I10
aI0
aI0
aa(lp506
I0
aI10
aI0
aa(lp507
I0
aI0
aI10
aasg501
g3
sg502
F1.0
sa(dp508
g490
g491
sg495
g8
sg489
I9
sg496
(lp509
(lp510
I10
aI0
aI0
aa(lp511
I0
aI10
aI0
aa(lp512
I0
aI0
aI10
aasg501
g3
sg502
F1.0
sa(dp513
g490
g491
sg495
g8
sg489
I11
sg496
(lp514
(lp515
I10
aI0
aI0
aa(lp516
I0
aI10
aI0
aa(lp517
I0
aI1
aI9
aasg501
g3
sg502
F0.9666666666666667
sa(dp518
g490
g491
sg495
g8
sg489
I13
sg496
(lp519
(lp520
I10
aI0
aI0
aa(lp521
I0
aI10
aI0
aa(lp522
I0
aI1
aI9
aasg501
g3
sg502
F0.9666666666666667
sasb.